target datalayout = "e-m:e-p270:32:32-p271:32:32-p272:64:64-i64:64-i128:128-f80:128-n8:16:32:64-S128"
target triple = "x86_64-pc-linux-gnu"

%struct.lean_object = type { i32, i32 }
%struct.lean_string_object = type { %struct.lean_object, i64, i64, i64, [0 x i8] }
%struct.lean_ctor_object = type { %struct.lean_object, [0 x ptr] }

@l_Lean_Meta_mkPProd___closed__1 = internal global ptr null, align 8
@l_Lean_Meta_mkPProd___closed__3 = internal global ptr null, align 8

; Function Attrs: inlinehint nounwind uwtable
define internal ptr @lean_to_string(ptr noundef %0) #0 {
  %2 = alloca ptr, align 8
  store ptr %0, ptr %2, align 8, !tbaa !8
  %3 = load ptr, ptr %2, align 8, !tbaa !8
  ret ptr %3
}

; Function Attrs: inlinehint nounwind uwtable
define internal zeroext i1 @lean_is_st(ptr noundef %0) #0 {
  %2 = alloca ptr, align 8
  store ptr %0, ptr %2, align 8, !tbaa !8
  %3 = load ptr, ptr %2, align 8, !tbaa !8
  %4 = getelementptr inbounds nuw %struct.lean_object, ptr %3, i32 0, i32 0
  %5 = load i32, ptr %4, align 4, !tbaa !13
  %6 = icmp sgt i32 %5, 0
  ret i1 %6
}

; Function Attrs: inlinehint nounwind uwtable
define internal i64 @lean_string_size(ptr noundef %0) #0 {
  %2 = alloca ptr, align 8
  store ptr %0, ptr %2, align 8, !tbaa !8
  %3 = load ptr, ptr %2, align 8, !tbaa !8
  %4 = call ptr @lean_to_string(ptr noundef %3)
  %5 = getelementptr inbounds nuw %struct.lean_string_object, ptr %4, i32 0, i32 1
  %6 = load i64, ptr %5, align 8, !tbaa !4
  ret i64 %6
}

; Function Attrs: inlinehint nounwind uwtable
define internal ptr @lean_to_ctor(ptr noundef %0) #0 {
  %2 = alloca ptr, align 8
  store ptr %0, ptr %2, align 8, !tbaa !8
  %3 = load ptr, ptr %2, align 8, !tbaa !8
  ret ptr %3
}

; Function Attrs: inlinehint nounwind uwtable
define internal void @lean_inc_ref(ptr noundef %0) #0 {
  %2 = alloca ptr, align 8
  store ptr %0, ptr %2, align 8, !tbaa !8
  %3 = load ptr, ptr %2, align 8, !tbaa !8
  %4 = call zeroext i1 @lean_is_st(ptr noundef %3)
  %5 = zext i1 %4 to i64
  %6 = call i64 @llvm.expect.i64(i64 %5, i64 1)
  %7 = icmp ne i64 %6, 0
  br i1 %7, label %8, label %13

8:                                                ; preds = %1
  %9 = load ptr, ptr %2, align 8, !tbaa !8
  %10 = getelementptr inbounds nuw %struct.lean_object, ptr %9, i32 0, i32 0
  %11 = load i32, ptr %10, align 4, !tbaa !13
  %12 = add i32 %11, 1
  store i32 %12, ptr %10, align 4, !tbaa !13
  br label %21

13:                                               ; preds = %1
  %14 = load ptr, ptr %2, align 8, !tbaa !8
  %15 = getelementptr inbounds nuw %struct.lean_object, ptr %14, i32 0, i32 0
  %16 = load i32, ptr %15, align 4, !tbaa !13
  %17 = icmp ne i32 %16, 0
  br i1 %17, label %18, label %20

18:                                               ; preds = %13
  %19 = load ptr, ptr %2, align 8, !tbaa !8
  call void @lean_inc_ref_cold(ptr noundef %19)
  br label %20

20:                                               ; preds = %18, %13
  br label %21

21:                                               ; preds = %20, %8
  ret void
}

; Function Attrs: inlinehint nounwind uwtable
define internal zeroext i1 @lean_string_eq(ptr noundef %0, ptr noundef %1) #0 {
  %3 = alloca ptr, align 8
  %4 = alloca ptr, align 8
  store ptr %0, ptr %3, align 8, !tbaa !8
  store ptr %1, ptr %4, align 8, !tbaa !8
  %5 = load ptr, ptr %3, align 8, !tbaa !8
  %6 = load ptr, ptr %4, align 8, !tbaa !8
  %7 = icmp eq ptr %5, %6
  br i1 %7, label %20, label %8

8:                                                ; preds = %2
  %9 = load ptr, ptr %3, align 8, !tbaa !8
  %10 = call i64 @lean_string_size(ptr noundef %9)
  %11 = load ptr, ptr %4, align 8, !tbaa !8
  %12 = call i64 @lean_string_size(ptr noundef %11)
  %13 = icmp eq i64 %10, %12
  br i1 %13, label %14, label %18

14:                                               ; preds = %8
  %15 = load ptr, ptr %3, align 8, !tbaa !8
  %16 = load ptr, ptr %4, align 8, !tbaa !8
  %17 = call zeroext i1 @lean_string_eq_cold(ptr noundef %15, ptr noundef %16)
  br label %18

18:                                               ; preds = %14, %8
  %19 = phi i1 [ false, %8 ], [ %17, %14 ]
  br label %20

20:                                               ; preds = %18, %2
  %21 = phi i1 [ true, %2 ], [ %19, %18 ]
  ret i1 %21
}

; Function Attrs: inlinehint nounwind uwtable
define internal ptr @lean_ctor_obj_cptr(ptr noundef %0) #0 {
  %2 = alloca ptr, align 8
  store ptr %0, ptr %2, align 8, !tbaa !8
  %3 = load ptr, ptr %2, align 8, !tbaa !8
  %4 = call ptr @lean_to_ctor(ptr noundef %3)
  %5 = getelementptr inbounds nuw %struct.lean_ctor_object, ptr %4, i32 0, i32 1
  %6 = getelementptr inbounds [0 x ptr], ptr %5, i64 0, i64 0
  ret ptr %6
}

; Function Attrs: inlinehint nounwind uwtable
define internal zeroext i8 @lean_ptr_tag(ptr noundef %0) #0 {
  %2 = alloca ptr, align 8
  store ptr %0, ptr %2, align 8, !tbaa !8
  %3 = load ptr, ptr %2, align 8, !tbaa !8
  %4 = getelementptr inbounds nuw %struct.lean_object, ptr %3, i32 0, i32 1
  %5 = load i32, ptr %4, align 4
  %6 = lshr i32 %5, 24
  %7 = trunc i32 %6 to i8
  ret i8 %7
}

; Function Attrs: inlinehint nounwind uwtable
define internal i64 @lean_unbox(ptr noundef %0) #0 {
  %2 = alloca ptr, align 8
  store ptr %0, ptr %2, align 8, !tbaa !8
  %3 = load ptr, ptr %2, align 8, !tbaa !8
  %4 = ptrtoint ptr %3 to i64
  %5 = lshr i64 %4, 1
  ret i64 %5
}

; Function Attrs: alwaysinline nounwind uwtable
define internal zeroext i1 @lean_is_scalar(ptr noundef %0) #1 {
  %2 = alloca ptr, align 8
  store ptr %0, ptr %2, align 8, !tbaa !8
  %3 = load ptr, ptr %2, align 8, !tbaa !8
  %4 = ptrtoint ptr %3 to i64
  %5 = and i64 %4, 1
  %6 = icmp eq i64 %5, 1
  ret i1 %6
}

; Function Attrs: alwaysinline nounwind uwtable
define internal void @lean_inc(ptr noundef %0) #1 {
  %2 = alloca ptr, align 8
  store ptr %0, ptr %2, align 8, !tbaa !8
  %3 = load ptr, ptr %2, align 8, !tbaa !8
  %4 = call zeroext i1 @lean_is_scalar(ptr noundef %3)
  br i1 %4, label %7, label %5

5:                                                ; preds = %1
  %6 = load ptr, ptr %2, align 8, !tbaa !8
  call void @lean_inc_ref(ptr noundef %6)
  br label %7

7:                                                ; preds = %5, %1
  ret void
}

; Function Attrs: inlinehint nounwind uwtable
define internal zeroext i8 @lean_string_dec_eq(ptr noundef %0, ptr noundef %1) #0 {
  %3 = alloca ptr, align 8
  %4 = alloca ptr, align 8
  store ptr %0, ptr %3, align 8, !tbaa !8
  store ptr %1, ptr %4, align 8, !tbaa !8
  %5 = load ptr, ptr %3, align 8, !tbaa !8
  %6 = load ptr, ptr %4, align 8, !tbaa !8
  %7 = call zeroext i1 @lean_string_eq(ptr noundef %5, ptr noundef %6)
  %8 = zext i1 %7 to i8
  ret i8 %8
}

; Function Attrs: inlinehint nounwind uwtable
define internal ptr @lean_ctor_get(ptr noundef %0, i32 noundef %1) #0 {
  %3 = alloca ptr, align 8
  %4 = alloca i32, align 4
  store ptr %0, ptr %3, align 8, !tbaa !8
  store i32 %1, ptr %4, align 4, !tbaa !16
  %5 = load ptr, ptr %3, align 8, !tbaa !8
  %6 = call ptr @lean_ctor_obj_cptr(ptr noundef %5)
  %7 = load i32, ptr %4, align 4, !tbaa !16
  %8 = zext i32 %7 to i64
  %9 = getelementptr inbounds nuw ptr, ptr %6, i64 %8
  %10 = load ptr, ptr %9, align 8, !tbaa !8
  ret ptr %10
}

; Function Attrs: inlinehint nounwind uwtable
define internal i32 @lean_obj_tag(ptr noundef %0) #0 {
  %2 = alloca i32, align 4
  %3 = alloca ptr, align 8
  store ptr %0, ptr %3, align 8, !tbaa !8
  %4 = load ptr, ptr %3, align 8, !tbaa !8
  %5 = call zeroext i1 @lean_is_scalar(ptr noundef %4)
  br i1 %5, label %6, label %10

6:                                                ; preds = %1
  %7 = load ptr, ptr %3, align 8, !tbaa !8
  %8 = call i64 @lean_unbox(ptr noundef %7)
  %9 = trunc i64 %8 to i32
  store i32 %9, ptr %2, align 4
  br label %14

10:                                               ; preds = %1
  %11 = load ptr, ptr %3, align 8, !tbaa !8
  %12 = call zeroext i8 @lean_ptr_tag(ptr noundef %11)
  %13 = zext i8 %12 to i32
  store i32 %13, ptr %2, align 4
  br label %14

14:                                               ; preds = %10, %6
  %15 = load i32, ptr %2, align 4
  ret i32 %15
}

; Function Attrs: nounwind uwtable
define ptr @l_Lean_Meta_PProdN_stripProjs(ptr noundef %0) #2 {
  %2 = alloca ptr, align 8
  %3 = alloca ptr, align 8
  %4 = alloca ptr, align 8
  %5 = alloca ptr, align 8
  %6 = alloca ptr, align 8
  %7 = alloca ptr, align 8
  %8 = alloca ptr, align 8
  %9 = alloca i8, align 1
  %10 = alloca ptr, align 8
  %11 = alloca i8, align 1
  %12 = alloca i32, align 4
  store ptr %0, ptr %3, align 8, !tbaa !8
  br label %13

13:                                               ; preds = %65, %1
  %14 = load ptr, ptr %3, align 8, !tbaa !8
  %15 = call i32 @lean_obj_tag(ptr noundef %14)
  %16 = icmp eq i32 %15, 11
  br i1 %16, label %17, label %67

17:                                               ; preds = %13
  call void @llvm.lifetime.start.p0(i64 8, ptr %4) #7
  %18 = load ptr, ptr %3, align 8, !tbaa !8
  %19 = call ptr @lean_ctor_get(ptr noundef %18, i32 noundef 0)
  store ptr %19, ptr %4, align 8, !tbaa !8
  %20 = load ptr, ptr %4, align 8, !tbaa !8
  %21 = call i32 @lean_obj_tag(ptr noundef %20)
  %22 = icmp eq i32 %21, 1
  br i1 %22, label %23, label %62

23:                                               ; preds = %17
  call void @llvm.lifetime.start.p0(i64 8, ptr %5) #7
  %24 = load ptr, ptr %4, align 8, !tbaa !8
  %25 = call ptr @lean_ctor_get(ptr noundef %24, i32 noundef 0)
  store ptr %25, ptr %5, align 8, !tbaa !8
  %26 = load ptr, ptr %5, align 8, !tbaa !8
  %27 = call i32 @lean_obj_tag(ptr noundef %26)
  %28 = icmp eq i32 %27, 0
  br i1 %28, label %29, label %58

29:                                               ; preds = %23
  call void @llvm.lifetime.start.p0(i64 8, ptr %6) #7
  call void @llvm.lifetime.start.p0(i64 8, ptr %7) #7
  call void @llvm.lifetime.start.p0(i64 8, ptr %8) #7
  call void @llvm.lifetime.start.p0(i64 1, ptr %9) #7
  %30 = load ptr, ptr %3, align 8, !tbaa !8
  %31 = call ptr @lean_ctor_get(ptr noundef %30, i32 noundef 2)
  store ptr %31, ptr %6, align 8, !tbaa !8
  %32 = load ptr, ptr %4, align 8, !tbaa !8
  %33 = call ptr @lean_ctor_get(ptr noundef %32, i32 noundef 1)
  store ptr %33, ptr %7, align 8, !tbaa !8
  %34 = load ptr, ptr @l_Lean_Meta_mkPProd___closed__1, align 8, !tbaa !8
  store ptr %34, ptr %8, align 8, !tbaa !8
  %35 = load ptr, ptr %7, align 8, !tbaa !8
  %36 = load ptr, ptr %8, align 8, !tbaa !8
  %37 = call zeroext i8 @lean_string_dec_eq(ptr noundef %35, ptr noundef %36)
  store i8 %37, ptr %9, align 1, !tbaa !12
  %38 = load i8, ptr %9, align 1, !tbaa !12
  %39 = zext i8 %38 to i32
  %40 = icmp eq i32 %39, 0
  br i1 %40, label %41, label %55

41:                                               ; preds = %29
  call void @llvm.lifetime.start.p0(i64 8, ptr %10) #7
  call void @llvm.lifetime.start.p0(i64 1, ptr %11) #7
  %42 = load ptr, ptr @l_Lean_Meta_mkPProd___closed__3, align 8, !tbaa !8
  store ptr %42, ptr %10, align 8, !tbaa !8
  %43 = load ptr, ptr %7, align 8, !tbaa !8
  %44 = load ptr, ptr %10, align 8, !tbaa !8
  %45 = call zeroext i8 @lean_string_dec_eq(ptr noundef %43, ptr noundef %44)
  store i8 %45, ptr %11, align 1, !tbaa !12
  %46 = load i8, ptr %11, align 1, !tbaa !12
  %47 = zext i8 %46 to i32
  %48 = icmp eq i32 %47, 0
  br i1 %48, label %49, label %52

49:                                               ; preds = %41
  %50 = load ptr, ptr %3, align 8, !tbaa !8
  call void @lean_inc(ptr noundef %50)
  %51 = load ptr, ptr %3, align 8, !tbaa !8
  store ptr %51, ptr %2, align 8
  store i32 1, ptr %12, align 4
  br label %54

52:                                               ; preds = %41
  %53 = load ptr, ptr %6, align 8, !tbaa !8
  store ptr %53, ptr %3, align 8, !tbaa !8
  store i32 2, ptr %12, align 4
  br label %54

54:                                               ; preds = %52, %49
  call void @llvm.lifetime.end.p0(i64 1, ptr %11) #7
  call void @llvm.lifetime.end.p0(i64 8, ptr %10) #7
  br label %57

55:                                               ; preds = %29
  %56 = load ptr, ptr %6, align 8, !tbaa !8
  store ptr %56, ptr %3, align 8, !tbaa !8
  store i32 2, ptr %12, align 4
  br label %57

57:                                               ; preds = %55, %54
  call void @llvm.lifetime.end.p0(i64 1, ptr %9) #7
  call void @llvm.lifetime.end.p0(i64 8, ptr %8) #7
  call void @llvm.lifetime.end.p0(i64 8, ptr %7) #7
  call void @llvm.lifetime.end.p0(i64 8, ptr %6) #7
  br label %61

58:                                               ; preds = %23
  %59 = load ptr, ptr %3, align 8, !tbaa !8
  call void @lean_inc(ptr noundef %59)
  %60 = load ptr, ptr %3, align 8, !tbaa !8
  store ptr %60, ptr %2, align 8
  store i32 1, ptr %12, align 4
  br label %61

61:                                               ; preds = %58, %57
  call void @llvm.lifetime.end.p0(i64 8, ptr %5) #7
  br label %65

62:                                               ; preds = %17
  %63 = load ptr, ptr %3, align 8, !tbaa !8
  call void @lean_inc(ptr noundef %63)
  %64 = load ptr, ptr %3, align 8, !tbaa !8
  store ptr %64, ptr %2, align 8
  store i32 1, ptr %12, align 4
  br label %65

65:                                               ; preds = %62, %61
  call void @llvm.lifetime.end.p0(i64 8, ptr %4) #7
  %66 = load i32, ptr %12, align 4
  switch i32 %66, label %72 [
    i32 1, label %70
    i32 2, label %13
  ]

67:                                               ; preds = %13
  %68 = load ptr, ptr %3, align 8, !tbaa !8
  call void @lean_inc(ptr noundef %68)
  %69 = load ptr, ptr %3, align 8, !tbaa !8
  store ptr %69, ptr %2, align 8
  br label %70

70:                                               ; preds = %67, %65
  %71 = load ptr, ptr %2, align 8
  ret ptr %71

72:                                               ; preds = %65
  unreachable
}