; Function Attrs: nounwind uwtable
define ptr @l_Lean_Meta_PProdN_stripProjs(ptr noundef %0) local_unnamed_addr #0 {
  br label %lean_inc.exit35

lean_inc.exit35:                                  ; preds = %lean_inc.exit35.backedge, %1
  %.028 = phi ptr [ %0, %1 ], [ %34, %lean_inc.exit35.backedge ]
  %2 = ptrtoint ptr %.028 to i64
  %3 = and i64 %2, 1
  %.not.i = icmp eq i64 %3, 0
  br i1 %.not.i, label %lean_obj_tag.exit.thread, label %lean_obj_tag.exit

lean_obj_tag.exit:                                ; preds = %lean_inc.exit35
  %4 = and i64 %2, 8589934590
  %5 = icmp eq i64 %4, 22
  br i1 %5, label %8, label %lean_inc.exit

lean_obj_tag.exit.thread:                         ; preds = %lean_inc.exit35
  %6 = getelementptr i8, ptr %.028, i64 4
  %.val.i = load i32, ptr %6, align 4
  %.mask = and i32 %.val.i, -16777216
  %7 = icmp eq i32 %.mask, 184549376
  br i1 %7, label %8, label %.thread

8:                                                ; preds = %lean_obj_tag.exit.thread, %lean_obj_tag.exit
  %9 = getelementptr inbounds nuw i8, ptr %.028, i64 8
  %10 = load ptr, ptr %9, align 8, !tbaa !10
  %11 = ptrtoint ptr %10 to i64
  %12 = and i64 %11, 1
  %.not.i36 = icmp eq i64 %12, 0
  br i1 %.not.i36, label %16, label %13

13:                                               ; preds = %8
  %14 = lshr i64 %11, 1
  %15 = trunc i64 %14 to i32
  br label %lean_obj_tag.exit39

16:                                               ; preds = %8
  %17 = getelementptr i8, ptr %10, i64 4
  %.val.i38 = load i32, ptr %17, align 4
  %18 = lshr i32 %.val.i38, 24
  br label %lean_obj_tag.exit39

lean_obj_tag.exit39:                              ; preds = %13, %16
  %.0.i37 = phi i32 [ %15, %13 ], [ %18, %16 ]
  %19 = icmp eq i32 %.0.i37, 1
  br i1 %19, label %20, label %63

20:                                               ; preds = %lean_obj_tag.exit39
  %21 = getelementptr inbounds nuw i8, ptr %10, i64 8
  %22 = load ptr, ptr %21, align 8, !tbaa !10
  %23 = ptrtoint ptr %22 to i64
  %24 = and i64 %23, 1
  %.not.i40 = icmp eq i64 %24, 0
  br i1 %.not.i40, label %28, label %25

25:                                               ; preds = %20
  %26 = lshr i64 %23, 1
  %27 = trunc i64 %26 to i32
  br label %lean_obj_tag.exit43

28:                                               ; preds = %20
  %29 = getelementptr i8, ptr %22, i64 4
  %.val.i42 = load i32, ptr %29, align 4
  %30 = lshr i32 %.val.i42, 24
  br label %lean_obj_tag.exit43

lean_obj_tag.exit43:                              ; preds = %25, %28
  %.0.i41 = phi i32 [ %27, %25 ], [ %30, %28 ]
  %31 = icmp eq i32 %.0.i41, 0
  br i1 %31, label %32, label %56

32:                                               ; preds = %lean_obj_tag.exit43
  %33 = getelementptr inbounds nuw i8, ptr %.028, i64 24
  %34 = load ptr, ptr %33, align 8, !tbaa !10
  %35 = getelementptr inbounds nuw i8, ptr %10, i64 16
  %36 = load ptr, ptr %35, align 8, !tbaa !10
  %37 = load ptr, ptr @l_Lean_Meta_mkPProd___closed__1, align 8, !tbaa !10
  %38 = icmp eq ptr %36, %37
  br i1 %38, label %lean_inc.exit35.backedge, label %39

39:                                               ; preds = %32
  %40 = getelementptr i8, ptr %36, i64 8
  %.val.i.i = load i64, ptr %40, align 8, !tbaa !14
  %41 = getelementptr i8, ptr %37, i64 8
  %.val7.i.i = load i64, ptr %41, align 8, !tbaa !14
  %42 = icmp eq i64 %.val.i.i, %.val7.i.i
  br i1 %42, label %lean_string_dec_eq.exit, label %lean_string_dec_eq.exit.thread

lean_string_dec_eq.exit:                          ; preds = %39
  %43 = tail call zeroext i1 @lean_string_eq_cold(ptr noundef nonnull %36, ptr noundef nonnull %37) #4
  br i1 %43, label %lean_inc.exit35.backedge, label %lean_string_dec_eq.exit.thread

lean_string_dec_eq.exit.thread:                   ; preds = %39, %lean_string_dec_eq.exit
  %44 = load ptr, ptr @l_Lean_Meta_mkPProd___closed__3, align 8, !tbaa !10
  %45 = icmp eq ptr %36, %44
  br i1 %45, label %lean_inc.exit35.backedge, label %46

lean_inc.exit35.backedge:                         ; preds = %lean_string_dec_eq.exit.thread, %32, %lean_string_dec_eq.exit, %lean_string_dec_eq.exit46
  br label %lean_inc.exit35

46:                                               ; preds = %lean_string_dec_eq.exit.thread
  %.val.i.i44 = load i64, ptr %40, align 8, !tbaa !14
  %47 = getelementptr i8, ptr %44, i64 8
  %.val7.i.i45 = load i64, ptr %47, align 8, !tbaa !14
  %48 = icmp eq i64 %.val.i.i44, %.val7.i.i45
  br i1 %48, label %lean_string_dec_eq.exit46, label %lean_string_dec_eq.exit46.thread

lean_string_dec_eq.exit46:                        ; preds = %46
  %49 = tail call zeroext i1 @lean_string_eq_cold(ptr noundef nonnull %36, ptr noundef nonnull %44) #4
  br i1 %49, label %lean_inc.exit35.backedge, label %lean_string_dec_eq.exit46.thread

lean_string_dec_eq.exit46.thread:                 ; preds = %46, %lean_string_dec_eq.exit46
  br i1 %.not.i, label %50, label %lean_inc.exit

50:                                               ; preds = %lean_string_dec_eq.exit46.thread
  %.val.i47 = load i32, ptr %.028, align 4, !tbaa !4
  %51 = icmp sgt i32 %.val.i47, 0
  br i1 %51, label %52, label %54, !prof !9

52:                                               ; preds = %50
  %53 = add nuw i32 %.val.i47, 1
  store i32 %53, ptr %.028, align 4, !tbaa !4
  br label %lean_inc.exit

54:                                               ; preds = %50
  %.not.i48 = icmp eq i32 %.val.i47, 0
  br i1 %.not.i48, label %lean_inc.exit, label %55

55:                                               ; preds = %54
  tail call void @lean_inc_ref_cold(ptr noundef nonnull %.028) #4
  br label %lean_inc.exit

56:                                               ; preds = %lean_obj_tag.exit43
  br i1 %.not.i, label %57, label %lean_inc.exit

57:                                               ; preds = %56
  %.val.i49 = load i32, ptr %.028, align 4, !tbaa !4
  %58 = icmp sgt i32 %.val.i49, 0
  br i1 %58, label %59, label %61, !prof !9

59:                                               ; preds = %57
  %60 = add nuw i32 %.val.i49, 1
  store i32 %60, ptr %.028, align 4, !tbaa !4
  br label %lean_inc.exit

61:                                               ; preds = %57
  %.not.i50 = icmp eq i32 %.val.i49, 0
  br i1 %.not.i50, label %lean_inc.exit, label %62

62:                                               ; preds = %61
  tail call void @lean_inc_ref_cold(ptr noundef nonnull %.028) #4
  br label %lean_inc.exit

63:                                               ; preds = %lean_obj_tag.exit39
  br i1 %.not.i, label %64, label %lean_inc.exit

64:                                               ; preds = %63
  %.val.i52 = load i32, ptr %.028, align 4, !tbaa !4
  %65 = icmp sgt i32 %.val.i52, 0
  br i1 %65, label %66, label %68, !prof !9

66:                                               ; preds = %64
  %67 = add nuw i32 %.val.i52, 1
  store i32 %67, ptr %.028, align 4, !tbaa !4
  br label %lean_inc.exit

68:                                               ; preds = %64
  %.not.i53 = icmp eq i32 %.val.i52, 0
  br i1 %.not.i53, label %lean_inc.exit, label %69

69:                                               ; preds = %68
  tail call void @lean_inc_ref_cold(ptr noundef nonnull %.028) #4
  br label %lean_inc.exit

.thread:                                          ; preds = %lean_obj_tag.exit.thread
  %.val.i55 = load i32, ptr %.028, align 4, !tbaa !4
  %70 = icmp sgt i32 %.val.i55, 0
  br i1 %70, label %71, label %73, !prof !9

71:                                               ; preds = %.thread
  %72 = add nuw i32 %.val.i55, 1
  store i32 %72, ptr %.028, align 4, !tbaa !4
  br label %lean_inc.exit

73:                                               ; preds = %.thread
  %.not.i56 = icmp eq i32 %.val.i55, 0
  br i1 %.not.i56, label %lean_inc.exit, label %74

74:                                               ; preds = %73
  tail call void @lean_inc_ref_cold(ptr noundef nonnull %.028) #4
  br label %lean_inc.exit

lean_inc.exit:                                    ; preds = %lean_obj_tag.exit, %63, %66, %68, %69, %56, %59, %61, %62, %lean_string_dec_eq.exit46.thread, %52, %54, %55, %71, %73, %74
  ret ptr %.028
}